; Function Attrs: nounwind uwtable
define void @Bac_ManAssignInternWordNames(ptr noundef readonly captures(none) %0) local_unnamed_addr #6 {
  %2 = getelementptr i8, ptr %0, i64 36
  %.val8.i = load i32, ptr %2, align 4, !tbaa !37
  %.not9.i = icmp slt i32 %.val8.i, 1
  br i1 %.not9.i, label %Bac_ManObjNum.exit, label %Bac_ManNtk.exit.lr.ph.i

Bac_ManNtk.exit.lr.ph.i:                          ; preds = %1
  %3 = getelementptr inbounds nuw i8, ptr %0, i64 40
  %4 = load ptr, ptr %3, align 8, !tbaa !42
  %5 = add nuw i32 %.val8.i, 1
  %wide.trip.count.i = zext i32 %5 to i64
  br label %Bac_ManNtk.exit.i

Bac_ManNtk.exit.i:                                ; preds = %Bac_ManNtk.exit.i, %Bac_ManNtk.exit.lr.ph.i
  %indvars.iv.i = phi i64 [ 1, %Bac_ManNtk.exit.lr.ph.i ], [ %indvars.iv.next.i, %Bac_ManNtk.exit.i ]
  %.011.i = phi i32 [ 0, %Bac_ManNtk.exit.lr.ph.i ], [ %7, %Bac_ManNtk.exit.i ]
  %6 = getelementptr %struct.Bac_Ntk_t_, ptr %4, i64 %indvars.iv.i, i32 10, i32 1
  %.val.i = load i32, ptr %6, align 4, !tbaa !33
  %7 = add nsw i32 %.val.i, %.011.i
  %indvars.iv.next.i = add nuw nsw i64 %indvars.iv.i, 1
  %exitcond.not.i = icmp eq i64 %indvars.iv.next.i, %wide.trip.count.i
  br i1 %exitcond.not.i, label %Bac_ManObjNum.exit.loopexit, label %Bac_ManNtk.exit.i, !llvm.loop !61

Bac_ManObjNum.exit.loopexit:                      ; preds = %Bac_ManNtk.exit.i
  %8 = shl nsw i32 %7, 1
  br label %Bac_ManObjNum.exit

Bac_ManObjNum.exit:                               ; preds = %Bac_ManObjNum.exit.loopexit, %1
  %.0.lcssa.i = phi i32 [ 0, %1 ], [ %8, %Bac_ManObjNum.exit.loopexit ]
  %9 = tail call noalias dereferenceable_or_null(16) ptr @malloc(i64 noundef 16) #24
  %10 = add i32 %.0.lcssa.i, -1
  %or.cond.i.i = icmp ult i32 %10, 15
  %spec.store.select.i.i = select i1 %or.cond.i.i, i32 16, i32 %.0.lcssa.i
  %11 = getelementptr inbounds nuw i8, ptr %9, i64 4
  store i32 %spec.store.select.i.i, ptr %9, align 8, !tbaa !28
  %.not.i.i = icmp eq i32 %spec.store.select.i.i, 0
  br i1 %.not.i.i, label %Vec_IntAlloc.exit.thread.i, label %Vec_IntAlloc.exit.i

Vec_IntAlloc.exit.thread.i:                       ; preds = %Bac_ManObjNum.exit
  %12 = getelementptr inbounds nuw i8, ptr %9, i64 8
  store ptr null, ptr %12, align 8, !tbaa !23
  store i32 %.0.lcssa.i, ptr %11, align 4, !tbaa !22
  br label %Vec_IntStart.exit

Vec_IntAlloc.exit.i:                              ; preds = %Bac_ManObjNum.exit
  %13 = sext i32 %spec.store.select.i.i to i64
  %14 = shl nsw i64 %13, 2
  %15 = tail call noalias ptr @malloc(i64 noundef %14) #24
  %16 = getelementptr inbounds nuw i8, ptr %9, i64 8
  store ptr %15, ptr %16, align 8, !tbaa !23
  store i32 %.0.lcssa.i, ptr %11, align 4, !tbaa !22
  %.not.i = icmp eq ptr %15, null
  br i1 %.not.i, label %Vec_IntStart.exit, label %17

17:                                               ; preds = %Vec_IntAlloc.exit.i
  %18 = sext i32 %.0.lcssa.i to i64
  %19 = shl nsw i64 %18, 2
  tail call void @llvm.memset.p0.i64(ptr nonnull align 4 %15, i8 0, i64 %19, i1 false)
  br label %Vec_IntStart.exit

Vec_IntStart.exit:                                ; preds = %Vec_IntAlloc.exit.thread.i, %Vec_IntAlloc.exit.i, %17
  %20 = phi ptr [ null, %Vec_IntAlloc.exit.thread.i ], [ null, %Vec_IntAlloc.exit.i ], [ %15, %17 ]
  br i1 %.not9.i, label %.critedge, label %Bac_ManNtk.exit.lr.ph

Bac_ManNtk.exit.lr.ph:                            ; preds = %Vec_IntStart.exit
  %21 = getelementptr inbounds nuw i8, ptr %0, i64 40
  br label %Bac_ManNtk.exit

Bac_ManNtk.exit:                                  ; preds = %Bac_ManNtk.exit.lr.ph, %Bac_ManNtk.exit
  %indvars.iv = phi i64 [ 1, %Bac_ManNtk.exit.lr.ph ], [ %indvars.iv.next, %Bac_ManNtk.exit ]
  %22 = load ptr, ptr %21, align 8, !tbaa !42
  %23 = getelementptr inbounds nuw %struct.Bac_Ntk_t_, ptr %22, i64 %indvars.iv
  tail call void @Bac_ManAssignInternWordNamesNtk(ptr noundef nonnull %23, ptr noundef nonnull %9)
  %indvars.iv.next = add nuw nsw i64 %indvars.iv, 1
  %.val = load i32, ptr %2, align 4, !tbaa !37
  %24 = sext i32 %.val to i64
  %.not.not = icmp slt i64 %indvars.iv, %24
  br i1 %.not.not, label %Bac_ManNtk.exit, label %.critedge, !llvm.loop !62

.critedge:                                        ; preds = %Bac_ManNtk.exit, %Vec_IntStart.exit
  %.not.i8 = icmp eq ptr %20, null
  br i1 %.not.i8, label %Vec_IntFree.exit, label %25

25:                                               ; preds = %.critedge
  tail call void @free(ptr noundef nonnull %20) #21
  br label %Vec_IntFree.exit

Vec_IntFree.exit:                                 ; preds = %.critedge, %25
  tail call void @free(ptr noundef nonnull %9) #21
  ret void
}